Certificate:
    Data:
        Version: 3 (0x2)
        Serial Number: 2 (0x2)
    Signature Algorithm: sha256WithRSAEncryption
        Issuer: C=TR, ST=Some-State, O=Internet Widgits Pty Ltd, CN=Karde\xC3\x85\xC2\x9Fler CA/emailAddress=hasanhuseyintopcuu@gmail.com
        Validity
            Not Before: Nov 12 00:30:22 2016 GMT
            Not After : Nov 12 00:30:22 2017 GMT
        Subject: C=TR, ST=Some-State, O=Internet Widgits Pty Ltd, CN=site2 Karde\xC3\x85\xC2\x9Fler CA
        Subject Public Key Info:
            Public Key Algorithm: rsaEncryption
                Public-Key: (2048 bit)
                Modulus:
                    00:cf:06:f4:f6:54:3f:e9:c8:9c:3b:6c:12:61:56:
                    b8:87:69:42:07:e4:b1:3b:77:27:fb:8c:95:85:fb:
                    86:ec:5f:87:aa:1a:86:5d:c4:73:bc:94:29:88:7e:
                    9c:ec:44:5b:dd:9c:35:a3:b1:27:e7:12:39:86:39:
                    bd:46:de:d2:ab:e1:8f:eb:4c:01:5d:4f:b3:20:cc:
                    38:25:02:9d:ff:95:0f:12:ca:1d:80:70:e2:4d:b4:
                    2b:0f:d2:b4:44:a3:5b:a6:78:38:bf:4e:87:3c:2c:
                    6d:5b:94:0c:b5:5e:f1:49:38:83:10:92:2b:c5:1b:
                    fa:6c:8a:8a:b0:af:6c:ee:73:fe:f6:ae:5d:35:0c:
                    33:96:f2:4b:e7:45:f6:2a:b2:d4:4b:53:18:42:3f:
                    ff:2f:78:e6:6d:eb:68:20:13:63:f3:d1:f2:57:2b:
                    0d:f5:b5:7a:09:93:2c:c6:7a:c8:b0:a7:84:64:ff:
                    73:2c:cc:c7:7f:fd:d4:71:dc:c3:d1:30:a4:d8:4c:
                    83:59:60:d2:e4:21:f0:ec:e7:69:1d:d5:e7:2e:2e:
                    93:a9:1f:85:d2:aa:e0:67:90:7b:b7:f3:ac:c7:c9:
                    2c:40:66:68:7a:73:44:13:20:10:b3:8c:4f:0d:23:
                    0c:da:48:25:2b:ba:18:2f:b1:75:f4:7e:b6:1b:02:
                    70:19
                Exponent: 65537 (0x10001)
        X509v3 extensions:
            X509v3 Basic Constraints: 
                CA:FALSE
            Netscape Comment: 
                OpenSSL Generated Certificate
            X509v3 Subject Key Identifier: 
                46:4E:1F:78:49:29:9E:6D:D3:A4:EF:3D:0A:BF:9F:4C:BC:AA:3C:4F
            X509v3 Authority Key Identifier: 
                keyid:9C:E8:2B:A9:0E:6A:66:00:6B:3E:DE:7D:96:1B:34:B8:CB:7D:0F:E7

    Signature Algorithm: sha256WithRSAEncryption
         a9:61:06:12:0f:de:a2:6b:c8:bf:5f:83:97:4e:d9:2f:2c:46:
         7e:e3:df:c1:24:a0:eb:dc:c6:b2:92:99:6e:e3:d1:e1:8a:fb:
         02:67:49:a6:10:98:82:96:64:ac:54:d6:87:2c:b9:5d:b1:df:
         6f:ea:8d:79:48:75:c0:03:98:48:95:d2:bf:c7:98:bb:ef:ee:
         e2:17:97:73:84:29:11:14:db:fd:87:06:9d:44:8a:7e:69:28:
         96:52:6b:2e:b7:8f:b0:6e:36:04:30:13:ef:4c:23:ac:fb:e5:
         9f:59:8c:80:89:b6:f1:80:01:e5:61:c5:d1:cb:ed:b2:4a:b2:
         8f:aa:2a:77:33:b8:d6:71:42:ec:49:8f:54:e8:83:a4:95:86:
         1d:67:60:cf:42:e3:d8:87:7c:9b:51:72:47:d4:ef:ab:18:88:
         89:85:96:e5:62:97:a5:a3:5f:58:fa:f8:e1:6c:c5:19:06:ae:
         85:17:27:6d:1e:a5:03:fb:36:63:36:e4:a5:40:af:29:29:1e:
         eb:1e:12:62:ed:2a:b7:d6:f0:50:43:ac:d0:12:67:5e:f2:cc:
         7a:03:4b:65:af:36:5c:97:02:80:68:f8:97:83:a7:ff:96:b2:
         d3:48:a3:4f:53:6e:4b:67:be:73:9f:ba:61:23:02:c4:98:b0:
         4c:d5:01:17:61:9d:18:4c:c0:e0:ed:7a:4d:e3:f0:cd:79:0f:
         29:7c:42:45:e7:84:f2:5e:de:74:71:b3:9a:e4:5f:56:64:ad:
         8b:f9:f9:9a:62:e2:c8:b2:ce:29:ec:ec:05:08:95:fa:a6:f9:
         b9:d9:91:ef:8e:62:4b:c8:14:4d:91:72:83:77:69:ef:38:93:
         4b:8d:5b:ff:c5:ad:da:ea:ef:f2:ea:c4:2a:04:54:fd:4a:e5:
         bf:62:da:78:d7:c5:03:ca:91:56:ef:dd:97:fb:62:9d:0d:09:
         db:0c:b2:5e:84:ec:61:29:53:cb:b5:2e:a0:20:f8:d1:0d:0e:
         41:16:65:07:6e:b0:fb:db:b6:08:10:bc:29:f1:76:46:a2:eb:
         8b:e7:50:fd:30:2a:b7:68:4a:67:83:70:e4:d9:04:2f:08:e5:
         22:4c:d2:cb:83:15:be:00:d8:f0:5c:b9:4f:97:35:b0:c9:04:
         cd:df:f4:70:54:5c:33:8a:4d:0d:f7:22:cf:b3:ef:17:8f:ff:
         7b:b8:f5:17:a3:e2:f2:34:5d:8d:b0:a0:09:83:8b:af:08:84:
         8a:f8:e8:09:f0:85:c0:8b:8e:c6:93:c3:6d:b2:f2:5b:61:57:
         5c:f5:bf:51:e9:b0:59:df:41:58:f9:d9:3b:8e:a4:dc:a1:96:
         75:96:28:c0:89:61:a0:88
-----BEGIN CERTIFICATE-----
MIIE6DCCAtCgAwIBAgIBAjANBgkqhkiG9w0BAQsFADCBjDELMAkGA1UEBhMCVFIx
EzARBgNVBAgMClNvbWUtU3RhdGUxITAfBgNVBAoMGEludGVybmV0IFdpZGdpdHMg
UHR5IEx0ZDEYMBYGA1UEAwwPS2FyZGXDhcKfbGVyIENBMSswKQYJKoZIhvcNAQkB
FhxoYXNhbmh1c2V5aW50b3BjdXVAZ21haWwuY29tMB4XDTE2MTExMjAwMzAyMloX
DTE3MTExMjAwMzAyMlowZTELMAkGA1UEBhMCVFIxEzARBgNVBAgMClNvbWUtU3Rh
dGUxITAfBgNVBAoMGEludGVybmV0IFdpZGdpdHMgUHR5IEx0ZDEeMBwGA1UEAwwV
c2l0ZTIgS2FyZGXDhcKfbGVyIENBMIIBIjANBgkqhkiG9w0BAQEFAAOCAQ8AMIIB
CgKCAQEAzwb09lQ/6cicO2wSYVa4h2lCB+SxO3cn+4yVhfuG7F+HqhqGXcRzvJQp
iH6c7ERb3Zw1o7En5xI5hjm9Rt7Sq+GP60wBXU+zIMw4JQKd/5UPEsodgHDiTbQr
D9K0RKNbpng4v06HPCxtW5QMtV7xSTiDEJIrxRv6bIqKsK9s7nP+9q5dNQwzlvJL
50X2KrLUS1MYQj//L3jmbetoIBNj89HyVysN9bV6CZMsxnrIsKeEZP9zLMzHf/3U
cdzD0TCk2EyDWWDS5CHw7OdpHdXnLi6TqR+F0qrgZ5B7t/Osx8ksQGZoenNEEyAQ
s4xPDSMM2kglK7oYL7F19H62GwJwGQIDAQABo3sweTAJBgNVHRMEAjAAMCwGCWCG
SAGG+EIBDQQfFh1PcGVuU1NMIEdlbmVyYXRlZCBDZXJ0aWZpY2F0ZTAdBgNVHQ4E
FgQURk4feEkpnm3TpO89Cr+fTLyqPE8wHwYDVR0jBBgwFoAUnOgrqQ5qZgBrPt59
lhs0uMt9D+cwDQYJKoZIhvcNAQELBQADggIBAKlhBhIP3qJryL9fg5dO2S8sRn7j
38EkoOvcxrKSmW7j0eGK+wJnSaYQmIKWZKxU1ocsuV2x32/qjXlIdcADmEiV0r/H
mLvv7uIXl3OEKREU2/2HBp1Ein5pKJZSay63j7BuNgQwE+9MI6z75Z9ZjICJtvGA
AeVhxdHL7bJKso+qKnczuNZxQuxJj1Tog6SVhh1nYM9C49iHfJtRckfU76sYiImF
luVil6WjX1j6+OFsxRkGroUXJ20epQP7NmM25KVArykpHuseEmLtKrfW8FBDrNAS
Z17yzHoDS2WvNlyXAoBo+JeDp/+WstNIo09TbktnvnOfumEjAsSYsEzVARdhnRhM
wODtek3j8M15Dyl8QkXnhPJe3nRxs5rkX1ZkrYv5+Zpi4siyzins7AUIlfqm+bnZ
ke+OYkvIFE2RcoN3ae84k0uNW//Frdrq7/LqxCoEVP1K5b9i2njXxQPKkVbv3Zf7
Yp0NCdsMsl6E7GEpU8u1LqAg+NENDkEWZQdusPvbtggQvCnxdkai64vnUP0wKrdo
SmeDcOTZBC8I5SJM0suDFb4A2PBcuU+XNbDJBM3f9HBUXDOKTQ33Is+z7xeP/3u4
9Rej4vI0XY2woAmDi68IhIr46AnwhcCLjsaTw22y8lthV1z1v1HpsFnfQVj52TuO
pNyhlnWWKMCJYaCI
-----END CERTIFICATE-----
