Certificate:
    Data:
        Version: 3 (0x2)
        Serial Number: 1 (0x1)
    Signature Algorithm: sha256WithRSAEncryption
        Issuer: C=TR, ST=Some-State, O=Internet Widgits Pty Ltd, CN=Karde\xC3\x85\xC2\x9Fler CA/emailAddress=hasanhuseyintopcuu@gmail.com
        Validity
            Not Before: Nov 12 00:21:40 2016 GMT
            Not After : Nov 12 00:21:40 2017 GMT
        Subject: C=TR, ST=Some-State, O=Internet Widgits Pty Ltd, CN=site1 Karde\xC3\x85\xC2\x9Fler CA
        Subject Public Key Info:
            Public Key Algorithm: rsaEncryption
                Public-Key: (2048 bit)
                Modulus:
                    00:c2:5c:df:96:d2:ca:e5:51:24:f8:e5:3e:dd:d7:
                    58:7b:88:e7:2e:75:44:b2:9d:84:85:31:16:71:e3:
                    52:b3:90:2e:f1:3b:0f:0e:ba:09:c8:c8:50:07:33:
                    66:10:93:29:a0:63:be:53:6a:e5:8a:5c:3e:76:38:
                    c8:1e:f7:ca:2b:db:40:bf:c9:d4:9b:41:bc:b9:99:
                    36:ff:45:1a:9f:22:fc:20:23:b3:4a:eb:ba:ee:50:
                    de:71:ee:f1:7f:08:f2:b6:13:c3:f7:75:a4:b7:64:
                    52:79:3f:19:8a:17:6a:57:a3:b7:c4:ae:a9:2b:87:
                    ae:17:73:50:42:26:8d:7d:27:2a:6e:c9:14:a4:2e:
                    f1:dd:19:9b:89:ce:c6:0a:9c:ae:97:01:4a:76:61:
                    53:d5:0c:82:c4:7b:aa:4d:78:90:fd:02:a5:60:0f:
                    cb:43:18:67:9c:44:aa:41:7f:b0:72:52:5a:c1:3a:
                    0e:64:de:04:bf:65:d3:39:f8:c3:be:96:65:8c:92:
                    5b:1e:3b:df:a0:a0:1b:26:b9:fa:7d:fa:9d:1e:bf:
                    ae:75:e6:8a:4e:8f:18:2e:07:e5:d3:eb:87:31:30:
                    96:8b:c7:b7:d8:66:10:77:be:1e:0d:8c:a9:7e:e7:
                    f0:4f:aa:35:60:74:7d:ba:f2:e0:50:22:ce:18:b3:
                    73:b3
                Exponent: 65537 (0x10001)
        X509v3 extensions:
            X509v3 Basic Constraints: 
                CA:FALSE
            Netscape Comment: 
                OpenSSL Generated Certificate
            X509v3 Subject Key Identifier: 
                84:AE:54:3C:4C:EE:38:75:8C:A8:90:C9:53:9A:0C:14:B7:5F:DE:40
            X509v3 Authority Key Identifier: 
                keyid:9C:E8:2B:A9:0E:6A:66:00:6B:3E:DE:7D:96:1B:34:B8:CB:7D:0F:E7

    Signature Algorithm: sha256WithRSAEncryption
         50:27:8b:48:ea:f8:42:08:a9:24:87:7c:77:d0:e4:65:57:97:
         de:16:22:f6:06:c0:b9:a0:db:14:8c:18:bc:24:03:a5:80:0f:
         1b:9d:6d:39:ad:0f:ee:c8:de:48:e4:17:aa:27:09:4c:6a:ef:
         d6:03:ef:2b:f3:7d:2e:38:7d:cd:c1:de:18:1b:c4:b2:9d:cf:
         2d:87:9f:2f:b3:9a:9b:77:70:93:6f:0b:00:94:39:16:2d:b0:
         72:cb:1f:3e:03:7f:21:73:91:b5:ee:39:4d:87:7b:03:bc:b7:
         6e:ec:bf:44:2d:c8:df:4d:c0:ca:8f:7d:a8:d8:9f:22:86:ab:
         d5:29:5e:ad:dc:c0:97:66:08:1f:64:50:bd:d1:e6:8a:50:b0:
         22:77:39:79:d5:6f:63:f9:88:e9:90:88:a9:f3:ad:a1:c1:79:
         57:aa:3f:0f:56:77:9c:85:ec:7e:c9:a0:a5:79:1f:f1:78:cb:
         21:46:28:44:04:7b:af:05:85:c1:3d:e8:54:7d:48:34:f8:91:
         ac:b7:73:6b:6d:52:6d:1b:74:8b:3e:68:4f:ad:b4:7b:ba:d0:
         8e:86:62:6e:5a:d1:37:f4:45:4e:84:6c:18:e9:80:70:79:0e:
         9f:89:d3:0c:b2:72:03:80:80:27:61:ae:74:98:0a:40:bf:96:
         b1:5f:cd:80:09:e0:a1:b0:63:fd:26:ac:b4:0c:22:8a:98:9d:
         1d:69:69:b7:11:88:57:2f:96:b5:c4:fe:c7:aa:cb:7c:a2:fd:
         98:8a:85:00:65:78:de:16:f3:96:40:20:43:e6:4f:f8:f6:68:
         fd:7e:67:53:2a:f5:7d:c5:ba:a6:bd:14:80:b6:3e:b6:d7:24:
         95:2a:e6:56:89:5d:06:83:7f:ac:c5:fc:87:f2:8b:13:c8:ab:
         15:1a:0e:50:e8:ae:0d:7a:d0:12:49:f0:da:f8:5b:d9:8d:f3:
         64:d4:56:66:b1:64:00:9f:01:91:0a:24:3e:84:4f:2b:cc:34:
         d9:a0:a0:6e:b3:0c:21:ef:bf:4b:e6:ff:46:c7:5a:db:0f:bb:
         b0:5c:fd:6c:07:aa:d0:c4:86:3e:9f:76:3f:1f:b6:bf:7a:18:
         8c:da:4e:12:2c:39:b8:79:1c:23:73:3f:58:ac:51:25:51:83:
         92:cc:60:6c:37:81:c6:28:78:ab:57:2b:e9:cc:5c:e5:82:bb:
         7c:6d:4a:32:62:7f:0c:d6:f7:4f:ed:d4:35:19:a1:2e:cd:29:
         00:92:9b:1c:88:46:0f:18:e8:72:44:73:03:9d:70:a2:fd:ee:
         26:91:86:d8:34:6d:5c:8e:a0:6a:01:f8:15:e9:f9:7e:23:c9:
         aa:7d:51:14:a8:ce:6a:19
-----BEGIN CERTIFICATE-----
MIIE6DCCAtCgAwIBAgIBATANBgkqhkiG9w0BAQsFADCBjDELMAkGA1UEBhMCVFIx
EzARBgNVBAgMClNvbWUtU3RhdGUxITAfBgNVBAoMGEludGVybmV0IFdpZGdpdHMg
UHR5IEx0ZDEYMBYGA1UEAwwPS2FyZGXDhcKfbGVyIENBMSswKQYJKoZIhvcNAQkB
FhxoYXNhbmh1c2V5aW50b3BjdXVAZ21haWwuY29tMB4XDTE2MTExMjAwMjE0MFoX
DTE3MTExMjAwMjE0MFowZTELMAkGA1UEBhMCVFIxEzARBgNVBAgMClNvbWUtU3Rh
dGUxITAfBgNVBAoMGEludGVybmV0IFdpZGdpdHMgUHR5IEx0ZDEeMBwGA1UEAwwV
c2l0ZTEgS2FyZGXDhcKfbGVyIENBMIIBIjANBgkqhkiG9w0BAQEFAAOCAQ8AMIIB
CgKCAQEAwlzfltLK5VEk+OU+3ddYe4jnLnVEsp2EhTEWceNSs5Au8TsPDroJyMhQ
BzNmEJMpoGO+U2rlilw+djjIHvfKK9tAv8nUm0G8uZk2/0UanyL8ICOzSuu67lDe
ce7xfwjythPD93Wkt2RSeT8ZihdqV6O3xK6pK4euF3NQQiaNfScqbskUpC7x3Rmb
ic7GCpyulwFKdmFT1QyCxHuqTXiQ/QKlYA/LQxhnnESqQX+wclJawToOZN4Ev2XT
OfjDvpZljJJbHjvfoKAbJrn6ffqdHr+udeaKTo8YLgfl0+uHMTCWi8e32GYQd74e
DYypfufwT6o1YHR9uvLgUCLOGLNzswIDAQABo3sweTAJBgNVHRMEAjAAMCwGCWCG
SAGG+EIBDQQfFh1PcGVuU1NMIEdlbmVyYXRlZCBDZXJ0aWZpY2F0ZTAdBgNVHQ4E
FgQUhK5UPEzuOHWMqJDJU5oMFLdf3kAwHwYDVR0jBBgwFoAUnOgrqQ5qZgBrPt59
lhs0uMt9D+cwDQYJKoZIhvcNAQELBQADggIBAFAni0jq+EIIqSSHfHfQ5GVXl94W
IvYGwLmg2xSMGLwkA6WADxudbTmtD+7I3kjkF6onCUxq79YD7yvzfS44fc3B3hgb
xLKdzy2Hny+zmpt3cJNvCwCUORYtsHLLHz4DfyFzkbXuOU2HewO8t27sv0QtyN9N
wMqPfajYnyKGq9UpXq3cwJdmCB9kUL3R5opQsCJ3OXnVb2P5iOmQiKnzraHBeVeq
Pw9Wd5yF7H7JoKV5H/F4yyFGKEQEe68FhcE96FR9SDT4kay3c2ttUm0bdIs+aE+t
tHu60I6GYm5a0Tf0RU6EbBjpgHB5Dp+J0wyycgOAgCdhrnSYCkC/lrFfzYAJ4KGw
Y/0mrLQMIoqYnR1pabcRiFcvlrXE/seqy3yi/ZiKhQBleN4W85ZAIEPmT/j2aP1+
Z1Mq9X3Fuqa9FIC2PrbXJJUq5laJXQaDf6zF/IfyixPIqxUaDlDorg160BJJ8Nr4
W9mN82TUVmaxZACfAZEKJD6ETyvMNNmgoG6zDCHvv0vm/0bHWtsPu7Bc/WwHqtDE
hj6fdj8ftr96GIzaThIsObh5HCNzP1isUSVRg5LMYGw3gcYoeKtXK+nMXOWCu3xt
SjJifwzW90/t1DUZoS7NKQCSmxyIRg8Y6HJEcwOdcKL97iaRhtg0bVyOoGoB+BXp
+X4jyap9URSozmoZ
-----END CERTIFICATE-----
