Certificate:
    Data:
        Version: 3 (0x2)
        Serial Number: 1 (0x1)
    Signature Algorithm: sha256WithRSAEncryption
        Issuer: C=TR, ST=Some-State, O=Internet Widgits Pty Ltd, CN=Kardesler CA/emailAddress=hasanhuseyintopcuu@gmail.com
        Validity
            Not Before: Dec  4 13:47:29 2016 GMT
            Not After : Dec  4 13:47:29 2017 GMT
        Subject: C=TR, ST=Some-State, O=Internet Widgits Pty Ltd, CN=hasan cert Kardesler CA
        Subject Public Key Info:
            Public Key Algorithm: rsaEncryption
                Public-Key: (2048 bit)
                Modulus:
                    00:bd:58:fb:ea:47:ad:b9:00:ca:0e:55:6f:97:d3:
                    76:e1:1e:76:07:86:78:f7:e8:66:0d:1a:d2:13:34:
                    80:50:c0:da:88:ad:b7:0f:ff:34:bc:2c:33:35:ca:
                    81:9e:e5:1e:a6:fe:5c:7d:11:2f:f7:ba:83:14:79:
                    39:d5:fe:8d:89:da:2d:87:05:0d:52:52:c5:35:9f:
                    2c:e5:93:2f:ff:b9:63:12:1d:5f:3b:49:86:4d:dc:
                    df:b2:e6:8a:9d:c3:f1:c3:b7:56:0b:de:65:23:71:
                    94:66:42:99:89:e4:3b:51:a4:45:d7:db:5b:28:56:
                    e6:b8:a5:e2:17:b2:8c:49:a3:b7:bf:1f:0b:4c:b3:
                    41:0b:13:d6:e2:e7:da:b9:69:6b:62:93:c4:9d:c7:
                    a3:5b:d4:ad:7f:62:05:5c:2b:16:d0:62:08:7b:63:
                    b9:b3:f8:74:dd:5a:52:2b:55:af:c5:61:29:8f:63:
                    97:b2:b6:6e:36:28:99:86:fb:2b:76:79:7d:31:01:
                    34:21:c2:5b:11:bd:c9:de:c3:79:f7:9c:3d:5c:f1:
                    97:8b:20:f4:7d:84:07:79:48:48:72:65:7f:34:82:
                    e8:78:5b:a5:d7:46:d6:c2:e4:8c:a9:b2:66:bb:4b:
                    63:ab:27:35:97:eb:26:73:fa:dc:03:79:7c:16:cb:
                    51:8b
                Exponent: 65537 (0x10001)
        X509v3 extensions:
            X509v3 Basic Constraints: 
                CA:FALSE
            Netscape Comment: 
                OpenSSL Generated Certificate
            X509v3 Subject Key Identifier: 
                B2:02:5D:53:7F:49:F4:F8:BC:DB:1E:CE:20:A6:61:E3:26:CF:99:F6
            X509v3 Authority Key Identifier: 
                keyid:7A:7A:99:69:8E:58:0F:50:71:52:34:A0:2F:84:AC:2B:19:91:61:CD

    Signature Algorithm: sha256WithRSAEncryption
         aa:55:d1:fb:f9:1a:1d:4b:b2:86:f7:72:36:97:b8:bf:61:e1:
         95:53:32:e7:17:48:9b:e1:69:da:7b:fd:5a:d7:48:8a:fe:03:
         e6:8e:18:91:ab:80:2c:1a:84:21:17:c0:14:76:42:40:72:4b:
         df:59:75:b0:8e:29:a1:82:f8:4e:06:04:52:2b:1b:67:50:3b:
         73:7c:2b:2d:24:ea:91:f3:d8:63:fd:ff:87:77:f8:99:cb:ce:
         76:4e:9d:ce:f3:f4:5f:73:d4:50:16:8a:c4:32:47:ac:fe:e0:
         2d:0e:e2:0f:c9:42:9a:f6:47:45:9c:53:fa:65:8b:9e:ac:dc:
         aa:2b:7e:7c:5e:b3:53:08:c8:1a:7e:e3:32:a4:13:ba:2b:81:
         e8:29:c1:c2:58:24:28:32:53:6d:d4:1d:3e:d4:3a:19:8d:36:
         3b:a7:c4:9b:df:58:27:f7:db:97:22:eb:94:64:03:9c:c4:e0:
         40:ca:41:70:43:70:fc:32:df:77:9d:35:8c:42:64:de:e7:48:
         22:1e:10:fb:ac:6a:9f:61:63:a2:f4:c6:22:74:72:e3:2e:cd:
         45:32:1d:88:18:8f:88:e0:6e:3d:d4:c2:08:37:f7:68:6b:d4:
         b6:61:1a:c5:2e:ee:c9:73:2d:dd:9a:be:43:6e:e6:f3:c0:2e:
         49:11:3a:ec:f2:2a:5a:07:91:ee:51:a5:c6:64:b6:8c:a9:f2:
         da:46:44:3d:1d:c9:d0:23:bf:ab:69:3d:a2:15:cf:87:5f:f5:
         d6:4f:17:fa:6e:88:da:61:87:a5:07:de:d9:b0:74:8a:14:ea:
         02:43:78:93:29:9c:08:90:a5:63:fc:8d:24:ae:fe:01:68:eb:
         1c:a2:56:51:89:62:38:82:0c:bb:ad:b1:ec:e2:83:7f:0f:f0:
         9f:44:4b:a7:b3:03:3a:8b:53:49:f5:b4:fd:e2:c2:ac:cb:27:
         66:ea:a8:4f:56:f2:6b:63:6b:85:7e:7e:95:29:8e:66:ea:6d:
         5d:86:b5:14:e4:30:3a:67:75:82:45:dc:a1:6b:98:e3:1d:fc:
         09:14:0a:1b:2b:be:3d:eb:ca:6f:a8:57:ba:2b:30:cb:79:0b:
         d5:5e:3d:a2:1a:d1:4b:24:3c:4b:e6:26:90:75:27:44:74:cf:
         32:c0:32:6d:85:b5:ab:aa:d5:13:30:94:29:7b:88:2c:95:8c:
         43:44:89:87:a4:5d:eb:0e:f2:39:4c:4a:eb:47:bf:b4:57:67:
         dc:8d:75:47:fa:69:51:db:aa:16:3f:7d:52:0b:28:1b:d5:03:
         da:57:63:e2:55:1f:bf:60:92:3c:e1:38:c1:46:de:5f:68:48:
         eb:14:dc:6c:2b:ff:7e:ff
-----BEGIN CERTIFICATE-----
MIIE5zCCAs+gAwIBAgIBATANBgkqhkiG9w0BAQsFADCBiTELMAkGA1UEBhMCVFIx
EzARBgNVBAgMClNvbWUtU3RhdGUxITAfBgNVBAoMGEludGVybmV0IFdpZGdpdHMg
UHR5IEx0ZDEVMBMGA1UEAwwMS2FyZGVzbGVyIENBMSswKQYJKoZIhvcNAQkBFhxo
YXNhbmh1c2V5aW50b3BjdXVAZ21haWwuY29tMB4XDTE2MTIwNDEzNDcyOVoXDTE3
MTIwNDEzNDcyOVowZzELMAkGA1UEBhMCVFIxEzARBgNVBAgMClNvbWUtU3RhdGUx
ITAfBgNVBAoMGEludGVybmV0IFdpZGdpdHMgUHR5IEx0ZDEgMB4GA1UEAwwXaGFz
YW4gY2VydCBLYXJkZXNsZXIgQ0EwggEiMA0GCSqGSIb3DQEBAQUAA4IBDwAwggEK
AoIBAQC9WPvqR625AMoOVW+X03bhHnYHhnj36GYNGtITNIBQwNqIrbcP/zS8LDM1
yoGe5R6m/lx9ES/3uoMUeTnV/o2J2i2HBQ1SUsU1nyzlky//uWMSHV87SYZN3N+y
5oqdw/HDt1YL3mUjcZRmQpmJ5DtRpEXX21soVua4peIXsoxJo7e/HwtMs0ELE9bi
59q5aWtik8Sdx6Nb1K1/YgVcKxbQYgh7Y7mz+HTdWlIrVa/FYSmPY5eytm42KJmG
+yt2eX0xATQhwlsRvcnew3n3nD1c8ZeLIPR9hAd5SEhyZX80guh4W6XXRtbC5Iyp
sma7S2OrJzWX6yZz+twDeXwWy1GLAgMBAAGjezB5MAkGA1UdEwQCMAAwLAYJYIZI
AYb4QgENBB8WHU9wZW5TU0wgR2VuZXJhdGVkIENlcnRpZmljYXRlMB0GA1UdDgQW
BBSyAl1Tf0n0+LzbHs4gpmHjJs+Z9jAfBgNVHSMEGDAWgBR6eplpjlgPUHFSNKAv
hKwrGZFhzTANBgkqhkiG9w0BAQsFAAOCAgEAqlXR+/kaHUuyhvdyNpe4v2HhlVMy
5xdIm+Fp2nv9WtdIiv4D5o4YkauALBqEIRfAFHZCQHJL31l1sI4poYL4TgYEUisb
Z1A7c3wrLSTqkfPYY/3/h3f4mcvOdk6dzvP0X3PUUBaKxDJHrP7gLQ7iD8lCmvZH
RZxT+mWLnqzcqit+fF6zUwjIGn7jMqQTuiuB6CnBwlgkKDJTbdQdPtQ6GY02O6fE
m99YJ/fblyLrlGQDnMTgQMpBcENw/DLfd501jEJk3udIIh4Q+6xqn2FjovTGInRy
4y7NRTIdiBiPiOBuPdTCCDf3aGvUtmEaxS7uyXMt3Zq+Q27m88AuSRE67PIqWgeR
7lGlxmS2jKny2kZEPR3J0CO/q2k9ohXPh1/11k8X+m6I2mGHpQfe2bB0ihTqAkN4
kymcCJClY/yNJK7+AWjrHKJWUYliOIIMu62x7OKDfw/wn0RLp7MDOotTSfW0/eLC
rMsnZuqoT1bya2NrhX5+lSmOZuptXYa1FOQwOmd1gkXcoWuY4x38CRQKGyu+PevK
b6hXuiswy3kL1V49ohrRSyQ8S+YmkHUnRHTPMsAybYW1q6rVEzCUKXuILJWMQ0SJ
h6Rd6w7yOUxK60e/tFdn3I11R/ppUduqFj99UgsoG9UD2ldj4lUfv2CSPOE4wUbe
X2hI6xTcbCv/fv8=
-----END CERTIFICATE-----
