Certificate:
    Data:
        Version: 3 (0x2)
        Serial Number: 1 (0x1)
    Signature Algorithm: sha256WithRSAEncryption
        Issuer: C=TR, ST=Some-State, O=Internet Widgits Pty Ltd, CN=Kardesler CA/emailAddress=tahabaskak@gmail.com
        Validity
            Not Before: Dec  4 14:06:26 2016 GMT
            Not After : Dec  4 14:06:26 2017 GMT
        Subject: C=TR, ST=Some-State, O=Internet Widgits Pty Ltd, CN=taha cert Kardesler CA
        Subject Public Key Info:
            Public Key Algorithm: rsaEncryption
                Public-Key: (2048 bit)
                Modulus:
                    00:cc:79:a7:01:2b:53:f4:7f:11:51:b2:59:62:5c:
                    05:6d:5c:c7:01:7b:06:33:e5:f9:01:a5:af:db:6a:
                    84:e9:b7:43:58:82:4c:51:ca:8f:ee:64:40:f6:55:
                    55:83:0d:55:b4:8b:9e:a4:75:cb:a4:5f:2d:74:03:
                    53:19:11:6d:a6:d5:c8:15:76:a8:3c:8d:b8:c9:18:
                    58:33:ca:ac:a7:5a:ac:4c:aa:7a:93:0d:f2:fb:e4:
                    51:4f:31:4b:bf:0b:0d:93:8f:17:6c:61:e3:7a:f5:
                    fe:97:0d:55:ea:f6:39:2e:c2:93:11:91:46:f6:c9:
                    72:d4:96:6b:73:ec:aa:eb:fa:56:d0:18:7e:40:89:
                    cf:dc:98:93:40:f0:ab:4e:55:cf:1a:b5:9a:47:8d:
                    b1:52:40:5c:d8:a2:0a:d5:4d:2c:6c:cf:9a:68:f2:
                    c5:85:90:b9:3a:e8:57:8a:04:e0:48:02:ab:e9:a5:
                    6d:62:a5:29:ad:f6:ba:4f:58:d0:c5:d5:17:18:3d:
                    41:3b:27:03:e3:4e:7c:70:dd:0a:88:37:a3:29:4d:
                    37:e5:12:4c:16:94:5b:3a:c0:fe:4e:01:85:b6:bc:
                    f0:1b:93:c9:d8:ac:8c:2e:58:9b:4f:bb:53:00:00:
                    27:0a:16:7c:dc:c8:f3:b9:e8:13:cd:b5:31:ba:81:
                    ae:7d
                Exponent: 65537 (0x10001)
        X509v3 extensions:
            X509v3 Basic Constraints: 
                CA:FALSE
            Netscape Comment: 
                OpenSSL Generated Certificate
            X509v3 Subject Key Identifier: 
                D5:C1:1B:A7:B9:92:41:D6:B7:8F:0E:43:7C:AC:8B:C6:11:6B:6C:38
            X509v3 Authority Key Identifier: 
                keyid:6C:7B:8C:ED:17:83:DB:01:62:0F:2D:C2:4C:BF:3E:46:93:09:D0:80

    Signature Algorithm: sha256WithRSAEncryption
         09:3e:c2:82:2d:42:d1:78:a3:87:9b:11:67:67:f8:12:94:28:
         51:16:a1:eb:77:a8:15:05:fb:82:29:81:1c:cd:70:ff:66:13:
         2e:fb:46:8f:0a:aa:db:65:1b:56:10:e2:be:00:43:e6:3c:f1:
         59:38:bd:17:37:d7:ed:30:90:5d:f7:f5:bf:3f:81:67:31:0e:
         5c:bb:88:e6:9d:a3:96:20:6d:34:eb:68:bd:e1:62:f5:6c:18:
         9d:c4:f9:b5:77:bc:0d:0e:62:85:d3:e3:47:e6:89:b1:18:0a:
         08:e6:9d:7c:0a:ed:fa:89:90:bd:2f:7e:3e:2e:55:e5:d4:25:
         e7:42:2e:64:40:54:ef:ce:31:10:27:d2:fc:f9:07:94:c6:b0:
         72:9a:cc:a6:33:bd:a6:27:91:1f:26:23:26:54:90:2a:99:ae:
         59:17:80:7f:77:4e:97:a7:3c:25:d5:91:e6:81:61:6e:af:e3:
         c3:71:f9:4b:48:9b:72:bb:9a:70:de:dd:83:52:27:1e:56:6b:
         41:40:96:82:46:12:f7:34:22:93:72:ef:68:25:02:bc:e8:58:
         5b:b3:de:97:7a:bf:17:00:3a:c3:3d:e3:77:0c:f7:82:78:5c:
         dd:dd:38:51:0d:35:ee:6b:f0:54:14:77:af:f3:28:9f:1d:1f:
         14:46:7b:79:28:bb:76:4f:46:f3:81:ed:7e:4e:ce:41:0d:6f:
         54:92:2b:c8:8e:bf:13:a9:f1:9c:4d:b6:40:06:19:d2:93:3d:
         bf:a9:be:8b:f0:8d:6e:b2:bd:4c:ad:02:66:fd:3c:94:7b:37:
         72:b6:69:5f:8d:67:1e:4c:6a:c3:91:2d:6d:2b:ad:e2:fd:84:
         aa:e2:ce:03:fd:63:16:9e:44:b6:7c:b4:e6:c4:b3:1e:f0:1b:
         ce:fa:90:fd:3d:0b:fa:39:9a:36:c7:ea:86:26:fc:02:a2:90:
         85:a2:53:fd:ab:f5:21:2f:ab:b9:78:fc:3a:7c:31:dc:8c:8e:
         03:09:66:71:eb:98:57:20:6c:a8:85:ec:54:b8:fc:78:4e:74:
         01:75:b1:dd:58:81:42:3d:d5:85:81:f6:6e:c2:cf:f1:5d:68:
         0d:08:d3:32:b9:6d:d3:b6:63:e0:1a:d6:2f:db:6a:b4:4f:fe:
         c5:dd:70:7f:f0:b1:35:91:15:04:dd:ce:ae:6a:61:cb:74:9a:
         95:87:e2:54:a1:a1:be:cc:7c:01:c3:e2:41:af:06:d6:7a:1c:
         26:45:d2:93:d4:26:74:d3:b5:83:fc:c7:c6:14:7e:ec:ee:d1:
         14:12:b0:bd:0b:dd:eb:64:d9:2d:b5:2f:5b:3e:05:92:8b:81:
         b5:8b:f3:c4:3c:ee:02:d7
-----BEGIN CERTIFICATE-----
MIIE3jCCAsagAwIBAgIBATANBgkqhkiG9w0BAQsFADCBgTELMAkGA1UEBhMCVFIx
EzARBgNVBAgMClNvbWUtU3RhdGUxITAfBgNVBAoMGEludGVybmV0IFdpZGdpdHMg
UHR5IEx0ZDEVMBMGA1UEAwwMS2FyZGVzbGVyIENBMSMwIQYJKoZIhvcNAQkBFhR0
YWhhYmFza2FrQGdtYWlsLmNvbTAeFw0xNjEyMDQxNDA2MjZaFw0xNzEyMDQxNDA2
MjZaMGYxCzAJBgNVBAYTAlRSMRMwEQYDVQQIDApTb21lLVN0YXRlMSEwHwYDVQQK
DBhJbnRlcm5ldCBXaWRnaXRzIFB0eSBMdGQxHzAdBgNVBAMMFnRhaGEgY2VydCBL
YXJkZXNsZXIgQ0EwggEiMA0GCSqGSIb3DQEBAQUAA4IBDwAwggEKAoIBAQDMeacB
K1P0fxFRslliXAVtXMcBewYz5fkBpa/baoTpt0NYgkxRyo/uZED2VVWDDVW0i56k
dcukXy10A1MZEW2m1cgVdqg8jbjJGFgzyqynWqxMqnqTDfL75FFPMUu/Cw2Tjxds
YeN69f6XDVXq9jkuwpMRkUb2yXLUlmtz7Krr+lbQGH5Aic/cmJNA8KtOVc8atZpH
jbFSQFzYogrVTSxsz5po8sWFkLk66FeKBOBIAqvppW1ipSmt9rpPWNDF1RcYPUE7
JwPjTnxw3QqIN6MpTTflEkwWlFs6wP5OAYW2vPAbk8nYrIwuWJtPu1MAACcKFnzc
yPO56BPNtTG6ga59AgMBAAGjezB5MAkGA1UdEwQCMAAwLAYJYIZIAYb4QgENBB8W
HU9wZW5TU0wgR2VuZXJhdGVkIENlcnRpZmljYXRlMB0GA1UdDgQWBBTVwRunuZJB
1rePDkN8rIvGEWtsODAfBgNVHSMEGDAWgBRse4ztF4PbAWIPLcJMvz5GkwnQgDAN
BgkqhkiG9w0BAQsFAAOCAgEACT7Cgi1C0Xijh5sRZ2f4EpQoURah63eoFQX7gimB
HM1w/2YTLvtGjwqq22UbVhDivgBD5jzxWTi9FzfX7TCQXff1vz+BZzEOXLuI5p2j
liBtNOtoveFi9WwYncT5tXe8DQ5ihdPjR+aJsRgKCOadfArt+omQvS9+Pi5V5dQl
50IuZEBU784xECfS/PkHlMawcprMpjO9pieRHyYjJlSQKpmuWReAf3dOl6c8JdWR
5oFhbq/jw3H5S0ibcruacN7dg1InHlZrQUCWgkYS9zQik3LvaCUCvOhYW7Pel3q/
FwA6wz3jdwz3gnhc3d04UQ017mvwVBR3r/Monx0fFEZ7eSi7dk9G84Htfk7OQQ1v
VJIryI6/E6nxnE22QAYZ0pM9v6m+i/CNbrK9TK0CZv08lHs3crZpX41nHkxqw5Et
bSut4v2EquLOA/1jFp5Etny05sSzHvAbzvqQ/T0L+jmaNsfqhib8AqKQhaJT/av1
IS+ruXj8Onwx3IyOAwlmceuYVyBsqIXsVLj8eE50AXWx3ViBQj3VhYH2bsLP8V1o
DQjTMrlt07Zj4BrWL9tqtE/+xd1wf/CxNZEVBN3Ormphy3SalYfiVKGhvsx8AcPi
Qa8G1nocJkXSk9QmdNO1g/zHxhR+7O7RFBKwvQvd62TZLbUvWz4FkouBtYvzxDzu
Atc=
-----END CERTIFICATE-----
